; Function Attrs: mustprogress nounwind uwtable
define hidden void @_ZN4llvh6detail9IEEEFloatC2ERKNS_12fltSemanticsEm(ptr noundef nonnull align 8 dereferenceable(24) initializes((0, 8)) %this, ptr noundef nonnull align 4 dereferenceable(12) %ourSemantics, i64 noundef %value) unnamed_addr #2 align 2 {
entry:
  store ptr %ourSemantics, ptr %this, align 8
  %precision.i.i = getelementptr inbounds nuw i8, ptr %ourSemantics, i64 4
  %0 = load i32, ptr %precision.i.i, align 4
  %sub.i.i.i = add i32 %0, 64
  %cmp.i = icmp ugt i32 %sub.i.i.i, 127
  br i1 %cmp.i, label %if.then.i, label %entry._ZN4llvh6detail9IEEEFloat10initializeEPKNS_12fltSemanticsE.exit_crit_edge

entry._ZN4llvh6detail9IEEEFloat10initializeEPKNS_12fltSemanticsE.exit_crit_edge: ; preds = %entry
  %significand.i.i.phi.trans.insert = getelementptr inbounds nuw i8, ptr %this, i64 8
  %.pre = load ptr, ptr %significand.i.i.phi.trans.insert, align 8
  br label %_ZN4llvh6detail9IEEEFloat10initializeEPKNS_12fltSemanticsE.exit

if.then.i:                                        ; preds = %entry
  %1 = lshr i32 %sub.i.i.i, 3
  %2 = and i32 %1, 536870904
  %3 = zext nneg i32 %2 to i64
  %call2.i = tail call noalias noundef nonnull ptr @_Znam(i64 noundef %3) #24
  %significand.i = getelementptr inbounds nuw i8, ptr %this, i64 8
  store ptr %call2.i, ptr %significand.i, align 8
  br label %_ZN4llvh6detail9IEEEFloat10initializeEPKNS_12fltSemanticsE.exit

_ZN4llvh6detail9IEEEFloat10initializeEPKNS_12fltSemanticsE.exit: ; preds = %entry._ZN4llvh6detail9IEEEFloat10initializeEPKNS_12fltSemanticsE.exit_crit_edge, %if.then.i
  %4 = phi ptr [ %.pre, %entry._ZN4llvh6detail9IEEEFloat10initializeEPKNS_12fltSemanticsE.exit_crit_edge ], [ %call2.i, %if.then.i ]
  %sign = getelementptr inbounds nuw i8, ptr %this, i64 18
  %bf.load = load i8, ptr %sign, align 2
  %bf.clear3 = and i8 %bf.load, -16
  %bf.set4 = or disjoint i8 %bf.clear3, 2
  store i8 %bf.set4, ptr %sign, align 2
  %5 = load i32, ptr %precision.i.i, align 4
  %6 = add i32 %5, -64
  %cmp.i.i = icmp ult i32 %6, -128
  %significand.i.i = getelementptr inbounds nuw i8, ptr %this, i64 8
  %retval.0.i.i = select i1 %cmp.i.i, ptr %4, ptr %significand.i.i
  %sub.i.i.i2 = add i32 %5, 64
  %div1.i.i.i = lshr i32 %sub.i.i.i2, 6
  tail call void @_ZN4llvh5APInt5tcSetEPmmj(ptr noundef %retval.0.i.i, i64 noundef 0, i32 noundef %div1.i.i.i) #26
  %7 = load i32, ptr %precision.i.i, align 4
  %8 = trunc i32 %7 to i16
  %conv = add i16 %8, -1
  %exponent = getelementptr inbounds nuw i8, ptr %this, i64 16
  store i16 %conv, ptr %exponent, align 8
  %9 = load ptr, ptr %this, align 8
  %precision.i.i3 = getelementptr inbounds nuw i8, ptr %9, i64 4
  %10 = load i32, ptr %precision.i.i3, align 4
  %11 = add i32 %10, -64
  %cmp.i4 = icmp ult i32 %11, -128
  %12 = load ptr, ptr %significand.i.i, align 8
  %retval.0.i = select i1 %cmp.i4, ptr %12, ptr %significand.i.i
  store i64 %value, ptr %retval.0.i, align 8
  %call5 = tail call noundef i32 @_ZN4llvh6detail9IEEEFloat9normalizeENS_11APFloatBase12roundingModeENS_12lostFractionE(ptr noundef nonnull align 8 dereferenceable(24) %this, i32 noundef 0, i32 noundef 0)
  ret void
}